target datalayout = "e-m:e-p270:32:32-p271:32:32-p272:64:64-i64:64-i128:128-f80:128-n8:16:32:64-S128"
target triple = "x86_64-pc-linux-gnu"

%struct.record_functions_st = type { ptr, ptr, ptr, ptr, ptr, ptr, ptr, ptr, ptr, ptr, ptr, ptr, ptr, ptr, ptr, ptr, ptr, ptr }
%struct.tls_buffer_st = type { ptr, i64, i64, i64, i64, i32, i32 }
%struct.tls_rl_record_st = type { i32, i32, i64, i64, i64, ptr, ptr, ptr, i16, [8 x i8] }
%struct.ossl_record_layer_st = type { ptr, ptr, i32, i32, i32, i32, i32, ptr, i16, ptr, ptr, ptr, i64, i32, [33 x %struct.tls_buffer_st], i64, i64, %struct.tls_buffer_st, [32 x %struct.tls_rl_record_st], i64, i64, i64, i32, ptr, i64, [8 x i8], i32, i32, i64, i32, ptr, ptr, i64, ptr, ptr, i32, i32, i32, i64, i64, i64, [64 x i8], i32, i32, i32, ptr, ptr, i32, i32, i64, ptr, ptr, %struct.dtls_bitmap_st, %struct.dtls_bitmap_st, i32, ptr, ptr, ptr, ptr, ptr, i64, ptr }
%struct.dtls_bitmap_st = type { i64, [8 x i8] }

@.str = private unnamed_addr constant [43 x i8] c"../openssl/ssl/record/methods/tls_common.c\00", align 1
@tls_any_funcs = external constant %struct.record_functions_st, align 8
@tls_1_3_funcs = external constant %struct.record_functions_st, align 8
@tls_1_funcs = external constant %struct.record_functions_st, align 8
@ssl_3_0_funcs = external constant %struct.record_functions_st, align 8
@__func__.tls_new_record_layer = private unnamed_addr constant [21 x i8] c"tls_new_record_layer\00", align 1

; Function Attrs: nounwind uwtable
define internal i32 @tls_new_record_layer(ptr noundef %0, ptr noundef %1, i32 noundef %2, i32 noundef %3, i32 noundef %4, i32 noundef %5, i16 noundef zeroext %6, ptr noundef %7, i64 noundef %8, ptr noundef %9, i64 noundef %10, ptr noundef %11, i64 noundef %12, ptr noundef %13, i64 noundef %14, ptr noundef %15, i64 noundef %16, i32 noundef %17, ptr noundef %18, ptr noundef %19, ptr noundef %20, ptr noundef %21, ptr noundef %22, ptr noundef %23, ptr noundef %24, ptr noundef %25, ptr noundef %26, ptr noundef %27, ptr noundef %28, ptr noundef %29, ptr noundef %30, ptr noundef %31) #0 {
  %33 = alloca i32, align 4
  %34 = alloca ptr, align 8
  %35 = alloca ptr, align 8
  %36 = alloca i32, align 4
  %37 = alloca i32, align 4
  %38 = alloca i32, align 4
  %39 = alloca i32, align 4
  %40 = alloca i16, align 2
  %41 = alloca ptr, align 8
  %42 = alloca i64, align 8
  %43 = alloca ptr, align 8
  %44 = alloca i64, align 8
  %45 = alloca ptr, align 8
  %46 = alloca i64, align 8
  %47 = alloca ptr, align 8
  %48 = alloca i64, align 8
  %49 = alloca ptr, align 8
  %50 = alloca i64, align 8
  %51 = alloca i32, align 4
  %52 = alloca ptr, align 8
  %53 = alloca ptr, align 8
  %54 = alloca ptr, align 8
  %55 = alloca ptr, align 8
  %56 = alloca ptr, align 8
  %57 = alloca ptr, align 8
  %58 = alloca ptr, align 8
  %59 = alloca ptr, align 8
  %60 = alloca ptr, align 8
  %61 = alloca ptr, align 8
  %62 = alloca ptr, align 8
  %63 = alloca ptr, align 8
  %64 = alloca ptr, align 8
  %65 = alloca ptr, align 8
  %66 = alloca i32, align 4
  %67 = alloca i32, align 4
  store ptr %0, ptr %34, align 8, !tbaa !129
  store ptr %1, ptr %35, align 8, !tbaa !15
  store i32 %2, ptr %36, align 4, !tbaa !18
  store i32 %3, ptr %37, align 4, !tbaa !18
  store i32 %4, ptr %38, align 4, !tbaa !18
  store i32 %5, ptr %39, align 4, !tbaa !18
  store i16 %6, ptr %40, align 2, !tbaa !126
  store ptr %7, ptr %41, align 8, !tbaa !15
  store i64 %8, ptr %42, align 8, !tbaa !38
  store ptr %9, ptr %43, align 8, !tbaa !15
  store i64 %10, ptr %44, align 8, !tbaa !38
  store ptr %11, ptr %45, align 8, !tbaa !15
  store i64 %12, ptr %46, align 8, !tbaa !38
  store ptr %13, ptr %47, align 8, !tbaa !15
  store i64 %14, ptr %48, align 8, !tbaa !38
  store ptr %15, ptr %49, align 8, !tbaa !33
  store i64 %16, ptr %50, align 8, !tbaa !38
  store i32 %17, ptr %51, align 4, !tbaa !18
  store ptr %18, ptr %52, align 8, !tbaa !35
  store ptr %19, ptr %53, align 8, !tbaa !130
  store ptr %20, ptr %54, align 8, !tbaa !35
  store ptr %21, ptr %55, align 8, !tbaa !67
  store ptr %22, ptr %56, align 8, !tbaa !67
  store ptr %23, ptr %57, align 8, !tbaa !67
  store ptr %24, ptr %58, align 8, !tbaa !182
  store ptr %25, ptr %59, align 8, !tbaa !182
  store ptr %26, ptr %60, align 8, !tbaa !36
  store ptr %27, ptr %61, align 8, !tbaa !36
  store ptr %28, ptr %62, align 8, !tbaa !132
  store ptr %29, ptr %63, align 8, !tbaa !41
  store ptr %30, ptr %64, align 8, !tbaa !41
  store ptr %31, ptr %65, align 8, !tbaa !134
  call void @llvm.lifetime.start.p0(i64 4, ptr %66) #10
  %68 = load ptr, ptr %34, align 8, !tbaa !129
  %69 = load ptr, ptr %35, align 8, !tbaa !15
  %70 = load i32, ptr %36, align 4, !tbaa !18
  %71 = load i32, ptr %37, align 4, !tbaa !18
  %72 = load i32, ptr %38, align 4, !tbaa !18
  %73 = load i32, ptr %39, align 4, !tbaa !18
  %74 = load ptr, ptr %49, align 8, !tbaa !33
  %75 = load i64, ptr %50, align 8, !tbaa !38
  %76 = load ptr, ptr %52, align 8, !tbaa !35
  %77 = load ptr, ptr %53, align 8, !tbaa !130
  %78 = load ptr, ptr %55, align 8, !tbaa !67
  %79 = load ptr, ptr %56, align 8, !tbaa !67
  %80 = load ptr, ptr %57, align 8, !tbaa !67
  %81 = load ptr, ptr %60, align 8, !tbaa !36
  %82 = load ptr, ptr %61, align 8, !tbaa !36
  %83 = load ptr, ptr %62, align 8, !tbaa !132
  %84 = load ptr, ptr %63, align 8, !tbaa !41
  %85 = load ptr, ptr %65, align 8, !tbaa !134
  %86 = call i32 @tls_int_new_record_layer(ptr noundef %68, ptr noundef %69, i32 noundef %70, i32 noundef %71, i32 noundef %72, i32 noundef %73, ptr noundef %74, i64 noundef %75, ptr noundef %76, ptr noundef %77, ptr noundef %78, ptr noundef %79, ptr noundef %80, ptr noundef %81, ptr noundef %82, ptr noundef %83, ptr noundef %84, ptr noundef %85)
  store i32 %86, ptr %66, align 4, !tbaa !18
  %87 = load i32, ptr %66, align 4, !tbaa !18
  %88 = icmp ne i32 %87, 1
  br i1 %88, label %89, label %91

89:                                               ; preds = %32
  %90 = load i32, ptr %66, align 4, !tbaa !18
  store i32 %90, ptr %33, align 4
  store i32 1, ptr %67, align 4
  br label %141

91:                                               ; preds = %32
  %92 = load i32, ptr %36, align 4, !tbaa !18
  switch i32 %92, label %109 [
    i32 65536, label %93
    i32 772, label %97
    i32 771, label %101
    i32 770, label %101
    i32 769, label %101
    i32 768, label %105
  ]

93:                                               ; preds = %91
  %94 = load ptr, ptr %65, align 8, !tbaa !134
  %95 = load ptr, ptr %94, align 8, !tbaa !16
  %96 = getelementptr inbounds nuw %struct.ossl_record_layer_st, ptr %95, i32 0, i32 61
  store ptr @tls_any_funcs, ptr %96, align 8, !tbaa !73
  br label %110

97:                                               ; preds = %91
  %98 = load ptr, ptr %65, align 8, !tbaa !134
  %99 = load ptr, ptr %98, align 8, !tbaa !16
  %100 = getelementptr inbounds nuw %struct.ossl_record_layer_st, ptr %99, i32 0, i32 61
  store ptr @tls_1_3_funcs, ptr %100, align 8, !tbaa !73
  br label %110

101:                                              ; preds = %91, %91, %91
  %102 = load ptr, ptr %65, align 8, !tbaa !134
  %103 = load ptr, ptr %102, align 8, !tbaa !16
  %104 = getelementptr inbounds nuw %struct.ossl_record_layer_st, ptr %103, i32 0, i32 61
  store ptr @tls_1_funcs, ptr %104, align 8, !tbaa !73
  br label %110

105:                                              ; preds = %91
  %106 = load ptr, ptr %65, align 8, !tbaa !134
  %107 = load ptr, ptr %106, align 8, !tbaa !16
  %108 = getelementptr inbounds nuw %struct.ossl_record_layer_st, ptr %107, i32 0, i32 61
  store ptr @ssl_3_0_funcs, ptr %108, align 8, !tbaa !73
  br label %110

109:                                              ; preds = %91
  call void @ERR_new()
  call void @ERR_set_debug(ptr noundef @.str, i32 noundef 1427, ptr noundef @__func__.tls_new_record_layer)
  call void (i32, i32, ptr, ...) @ERR_set_error(i32 noundef 20, i32 noundef 786691, ptr noundef null)
  store i32 -2, ptr %66, align 4, !tbaa !18
  br label %132

110:                                              ; preds = %105, %101, %97, %93
  %111 = load ptr, ptr %65, align 8, !tbaa !134
  %112 = load ptr, ptr %111, align 8, !tbaa !16
  %113 = getelementptr inbounds nuw %struct.ossl_record_layer_st, ptr %112, i32 0, i32 61
  %114 = load ptr, ptr %113, align 8, !tbaa !73
  %115 = getelementptr inbounds nuw %struct.record_functions_st, ptr %114, i32 0, i32 0
  %116 = load ptr, ptr %115, align 8, !tbaa !184
  %117 = load ptr, ptr %65, align 8, !tbaa !134
  %118 = load ptr, ptr %117, align 8, !tbaa !16
  %119 = load i32, ptr %39, align 4, !tbaa !18
  %120 = load ptr, ptr %43, align 8, !tbaa !15
  %121 = load i64, ptr %44, align 8, !tbaa !38
  %122 = load ptr, ptr %45, align 8, !tbaa !15
  %123 = load i64, ptr %46, align 8, !tbaa !38
  %124 = load ptr, ptr %47, align 8, !tbaa !15
  %125 = load i64, ptr %48, align 8, !tbaa !38
  %126 = load ptr, ptr %49, align 8, !tbaa !33
  %127 = load i64, ptr %50, align 8, !tbaa !38
  %128 = load i32, ptr %51, align 4, !tbaa !18
  %129 = load ptr, ptr %52, align 8, !tbaa !35
  %130 = load ptr, ptr %53, align 8, !tbaa !130
  %131 = call i32 %116(ptr noundef %118, i32 noundef %119, ptr noundef %120, i64 noundef %121, ptr noundef %122, i64 noundef %123, ptr noundef %124, i64 noundef %125, ptr noundef %126, i64 noundef %127, i32 noundef %128, ptr noundef %129, ptr noundef %130)
  store i32 %131, ptr %66, align 4, !tbaa !18
  br label %132

132:                                              ; preds = %110, %109
  %133 = load i32, ptr %66, align 4, !tbaa !18
  %134 = icmp ne i32 %133, 1
  br i1 %134, label %135, label %139

135:                                              ; preds = %132
  %136 = load ptr, ptr %65, align 8, !tbaa !134
  %137 = load ptr, ptr %136, align 8, !tbaa !16
  call void @tls_int_free(ptr noundef %137)
  %138 = load ptr, ptr %65, align 8, !tbaa !134
  store ptr null, ptr %138, align 8, !tbaa !16
  br label %139

139:                                              ; preds = %135, %132
  %140 = load i32, ptr %66, align 4, !tbaa !18
  store i32 %140, ptr %33, align 4
  store i32 1, ptr %67, align 4
  br label %141

141:                                              ; preds = %139, %89
  call void @llvm.lifetime.end.p0(i64 4, ptr %66) #10
  %142 = load i32, ptr %33, align 4
  ret i32 %142
}