; Function Attrs: nounwind uwtable
define internal i32 @tls_new_record_layer(ptr noundef %0, ptr noundef %1, i32 noundef %2, i32 noundef %3, i32 noundef %4, i32 noundef %5, i16 zeroext %6, ptr readnone captures(none) %7, i64 %8, ptr noundef %9, i64 noundef %10, ptr noundef %11, i64 noundef %12, ptr noundef %13, i64 noundef %14, ptr noundef %15, i64 noundef %16, i32 noundef %17, ptr noundef %18, ptr noundef %19, ptr readnone captures(none) %20, ptr noundef %21, ptr noundef %22, ptr noundef %23, ptr readnone captures(none) %24, ptr readnone captures(none) %25, ptr noundef %26, ptr noundef %27, ptr noundef captures(address_is_null) %28, ptr noundef %29, ptr readnone captures(none) %30, ptr noundef captures(none) initializes((0, 8)) %31) #0 {
  %33 = tail call i32 @tls_int_new_record_layer(ptr noundef %0, ptr noundef %1, i32 noundef %2, i32 noundef %3, i32 noundef %4, i32 noundef %5, ptr noundef %15, i64 noundef %16, ptr noundef %18, ptr poison, ptr noundef %21, ptr noundef %22, ptr noundef %23, ptr noundef %26, ptr noundef %27, ptr noundef %28, ptr noundef %29, ptr noundef %31)
  %.not = icmp eq i32 %33, 1
  br i1 %.not, label %34, label %45

34:                                               ; preds = %32
  switch i32 %2, label %.thread [
    i32 65536, label %38
    i32 772, label %35
    i32 771, label %36
    i32 770, label %36
    i32 769, label %36
    i32 768, label %37
  ]

35:                                               ; preds = %34
  br label %38

36:                                               ; preds = %34, %34, %34
  br label %38

37:                                               ; preds = %34
  br label %38

.thread:                                          ; preds = %34
  tail call void @ERR_new() #13
  tail call void @ERR_set_debug(ptr noundef nonnull @.str, i32 noundef 1427, ptr noundef nonnull @__func__.tls_new_record_layer) #13
  tail call void (i32, i32, ptr, ...) @ERR_set_error(i32 noundef 20, i32 noundef 786691, ptr noundef null) #13
  br label %43

38:                                               ; preds = %34, %35, %36, %37
  %tls_any_funcs.sink = phi ptr [ @tls_1_3_funcs, %35 ], [ @tls_1_funcs, %36 ], [ @ssl_3_0_funcs, %37 ], [ @tls_any_funcs, %34 ]
  %39 = load ptr, ptr %31, align 8, !tbaa !104
  %40 = getelementptr inbounds nuw i8, ptr %39, i64 4424
  store ptr %tls_any_funcs.sink, ptr %40, align 8, !tbaa !56
  %41 = load ptr, ptr %tls_any_funcs.sink, align 8, !tbaa !150
  %42 = tail call i32 %41(ptr noundef nonnull %39, i32 noundef %5, ptr noundef %9, i64 noundef %10, ptr noundef %11, i64 noundef %12, ptr noundef %13, i64 noundef %14, ptr noundef %15, i64 noundef %16, i32 noundef %17, ptr noundef %18, ptr noundef %19) #13
  %.not45 = icmp eq i32 %42, 1
  br i1 %.not45, label %45, label %43

43:                                               ; preds = %.thread, %38
  %.048 = phi i32 [ -2, %.thread ], [ %42, %38 ]
  %44 = load ptr, ptr %31, align 8, !tbaa !104
  tail call fastcc void @tls_int_free(ptr noundef %44)
  store ptr null, ptr %31, align 8, !tbaa !104
  br label %45

45:                                               ; preds = %38, %43, %32
  %.043 = phi i32 [ %33, %32 ], [ %.048, %43 ], [ 1, %38 ]
  ret i32 %.043
}